target datalayout = "e-m:e-p270:32:32-p271:32:32-p272:64:64-i64:64-i128:128-f80:128-n8:16:32:64-S128"
target triple = "x86_64-pc-linux-gnu"

%struct.mi_memid_s = type { %union.anon, i8, i8, i8, i32 }
%union.anon = type { %struct.mi_memid_os_info }
%struct.mi_memid_os_info = type { ptr, i64 }
%struct.mi_segmap_part_s = type { %struct.mi_memid_s, [1008 x i64] }

@mi_segment_map = internal global [25 x ptr] zeroinitializer, align 16

; Function Attrs: nounwind uwtable
define hidden void @_mi_segment_map_unsafe_destroy() #0 {
  %1 = alloca i64, align 8
  %2 = alloca ptr, align 8
  %3 = alloca ptr, align 8
  %4 = alloca ptr, align 8
  call void @llvm.lifetime.start.p0(i64 8, ptr %1) #6
  store i64 0, ptr %1, align 8, !tbaa !18
  br label %5

5:                                                ; preds = %22, %0
  %6 = load i64, ptr %1, align 8, !tbaa !18
  %7 = icmp ult i64 %6, 25
  br i1 %7, label %9, label %8

8:                                                ; preds = %5
  call void @llvm.lifetime.end.p0(i64 8, ptr %1) #6
  br label %25

9:                                                ; preds = %5
  call void @llvm.lifetime.start.p0(i64 8, ptr %2) #6
  %10 = load i64, ptr %1, align 8, !tbaa !18
  %11 = getelementptr inbounds nuw [25 x ptr], ptr @mi_segment_map, i64 0, i64 %10
  store ptr null, ptr %3, align 8, !tbaa !16
  %12 = load i64, ptr %3, align 8
  %13 = atomicrmw xchg ptr %11, i64 %12 monotonic, align 8
  store i64 %13, ptr %4, align 8
  %14 = load ptr, ptr %4, align 8, !tbaa !16
  store ptr %14, ptr %2, align 8, !tbaa !16
  %15 = load ptr, ptr %2, align 8, !tbaa !16
  %16 = icmp ne ptr %15, null
  br i1 %16, label %17, label %21

17:                                               ; preds = %9
  %18 = load ptr, ptr %2, align 8, !tbaa !16
  %19 = load ptr, ptr %2, align 8, !tbaa !16
  %20 = getelementptr inbounds nuw %struct.mi_segmap_part_s, ptr %19, i32 0, i32 0
  call void @_mi_os_free(ptr noundef %18, i64 noundef 8088, ptr noundef byval(%struct.mi_memid_s) align 8 %20) #7
  br label %21

21:                                               ; preds = %17, %9
  call void @llvm.lifetime.end.p0(i64 8, ptr %2) #6
  br label %22

22:                                               ; preds = %21
  %23 = load i64, ptr %1, align 8, !tbaa !18
  %24 = add i64 %23, 1
  store i64 %24, ptr %1, align 8, !tbaa !18
  br label %5, !llvm.loop !31

25:                                               ; preds = %8
  ret void
}